; Function Attrs: nounwind uwtable
define i32 @Fra_RefineClassLastIter(ptr noundef readonly captures(none) %0, ptr noundef captures(none) %1) local_unnamed_addr #6 {
  %3 = getelementptr i8, ptr %1, i64 4
  %.val = load i32, ptr %3, align 4, !tbaa !23
  %4 = getelementptr i8, ptr %1, i64 8
  %.val13 = load ptr, ptr %4, align 8, !tbaa !27
  %5 = sext i32 %.val to i64
  %6 = getelementptr ptr, ptr %.val13, i64 %5
  %7 = getelementptr i8, ptr %6, i64 -8
  %8 = load ptr, ptr %7, align 8, !tbaa !41
  %9 = tail call ptr @Fra_RefineClassOne(ptr noundef %0, ptr noundef %8)
  %.not15 = icmp eq ptr %9, null
  br i1 %.not15, label %.loopexit, label %.lr.ph

.lr.ph:                                           ; preds = %2, %Vec_PtrPush.exit
  %10 = phi ptr [ %53, %Vec_PtrPush.exit ], [ %9, %2 ]
  %.017 = phi i32 [ %52, %Vec_PtrPush.exit ], [ 0, %2 ]
  %.01116 = phi ptr [ %10, %Vec_PtrPush.exit ], [ %8, %2 ]
  %11 = getelementptr inbounds nuw i8, ptr %.01116, i64 8
  %12 = load ptr, ptr %11, align 8, !tbaa !42
  %13 = icmp eq ptr %12, null
  br i1 %13, label %14, label %17

14:                                               ; preds = %.lr.ph
  %15 = load i32, ptr %3, align 4, !tbaa !23
  %16 = add nsw i32 %15, -1
  store i32 %16, ptr %3, align 4, !tbaa !23
  br label %17

17:                                               ; preds = %14, %.lr.ph
  %18 = getelementptr inbounds nuw i8, ptr %10, i64 8
  %19 = load ptr, ptr %18, align 8, !tbaa !42
  %20 = icmp eq ptr %19, null
  br i1 %20, label %21, label %23

21:                                               ; preds = %17
  %22 = add nuw nsw i32 %.017, 1
  br label %.loopexit

23:                                               ; preds = %17
  %24 = load i32, ptr %3, align 4, !tbaa !23
  %25 = load i32, ptr %1, align 8, !tbaa !26
  %26 = icmp eq i32 %24, %25
  br i1 %26, label %27, label %.Vec_PtrGrow.exit11_crit_edge.i

.Vec_PtrGrow.exit11_crit_edge.i:                  ; preds = %23
  %.pre.i = load ptr, ptr %4, align 8, !tbaa !27
  br label %Vec_PtrPush.exit

27:                                               ; preds = %23
  %28 = icmp slt i32 %24, 16
  br i1 %28, label %29, label %36

29:                                               ; preds = %27
  %30 = load ptr, ptr %4, align 8, !tbaa !27
  %.not9.i.i = icmp eq ptr %30, null
  br i1 %.not9.i.i, label %33, label %31

31:                                               ; preds = %29
  %32 = tail call dereferenceable_or_null(128) ptr @realloc(ptr noundef nonnull %30, i64 noundef 128) #19
  br label %Vec_PtrGrow.exit.i

33:                                               ; preds = %29
  %34 = tail call noalias dereferenceable_or_null(128) ptr @malloc(i64 noundef 128) #17
  br label %Vec_PtrGrow.exit.i

Vec_PtrGrow.exit.i:                               ; preds = %33, %31
  %35 = phi ptr [ %32, %31 ], [ %34, %33 ]
  store ptr %35, ptr %4, align 8, !tbaa !27
  store i32 16, ptr %1, align 8, !tbaa !26
  br label %Vec_PtrPush.exit

36:                                               ; preds = %27
  %37 = shl nuw nsw i32 %24, 1
  %38 = load ptr, ptr %4, align 8, !tbaa !27
  %.not9.i10.i = icmp eq ptr %38, null
  %39 = zext nneg i32 %37 to i64
  %40 = shl nuw nsw i64 %39, 3
  br i1 %.not9.i10.i, label %43, label %41

41:                                               ; preds = %36
  %42 = tail call ptr @realloc(ptr noundef nonnull %38, i64 noundef %40) #19
  br label %45

43:                                               ; preds = %36
  %44 = tail call noalias ptr @malloc(i64 noundef %40) #17
  br label %45

45:                                               ; preds = %43, %41
  %46 = phi ptr [ %42, %41 ], [ %44, %43 ]
  store ptr %46, ptr %4, align 8, !tbaa !27
  store i32 %37, ptr %1, align 8, !tbaa !26
  br label %Vec_PtrPush.exit

Vec_PtrPush.exit:                                 ; preds = %.Vec_PtrGrow.exit11_crit_edge.i, %Vec_PtrGrow.exit.i, %45
  %47 = phi ptr [ %.pre.i, %.Vec_PtrGrow.exit11_crit_edge.i ], [ %46, %45 ], [ %35, %Vec_PtrGrow.exit.i ]
  %48 = load i32, ptr %3, align 4, !tbaa !23
  %49 = add nsw i32 %48, 1
  store i32 %49, ptr %3, align 4, !tbaa !23
  %50 = sext i32 %48 to i64
  %51 = getelementptr inbounds ptr, ptr %47, i64 %50
  store ptr %10, ptr %51, align 8, !tbaa !41
  %52 = add nuw nsw i32 %.017, 1
  %53 = tail call ptr @Fra_RefineClassOne(ptr noundef %0, ptr noundef nonnull %10)
  %.not = icmp eq ptr %53, null
  br i1 %.not, label %.loopexit, label %.lr.ph, !llvm.loop !78

.loopexit:                                        ; preds = %Vec_PtrPush.exit, %2, %21
  %.1 = phi i32 [ %22, %21 ], [ 0, %2 ], [ %52, %Vec_PtrPush.exit ]
  ret i32 %.1
}